; Function Attrs: mustprogress uwtable
define hidden noundef zeroext i1 @_ZNK12bv2real_util10is_bv2realEP4exprRS1_S2_R8rationalS4_(ptr noundef nonnull align 8 dereferenceable(272) %this, ptr nocapture noundef readonly %e, ptr nocapture noundef nonnull writeonly align 8 dereferenceable(8) %m, ptr nocapture noundef nonnull writeonly align 8 dereferenceable(8) %n, ptr noundef nonnull align 8 dereferenceable(32) %d, ptr noundef nonnull align 8 dereferenceable(32) %r) local_unnamed_addr #3 align 2 {
entry:
  %m_kind.i.i = getelementptr inbounds i8, ptr %e, i64 4
  %bf.load.i.i = load i32, ptr %m_kind.i.i, align 4
  %bf.clear.i.i = and i32 %bf.load.i.i, 65535
  %cmp.i = icmp eq i32 %bf.clear.i.i, 0
  br i1 %cmp.i, label %if.end, label %return

if.end:                                           ; preds = %entry
  %m_decl.i = getelementptr inbounds i8, ptr %e, i64 16
  %0 = load ptr, ptr %m_decl.i, align 8
  %m_args.i = getelementptr inbounds i8, ptr %e, i64 32
  %call8 = tail call noundef zeroext i1 @_ZNK12bv2real_util10is_bv2realEP9func_decljPKP4exprRS3_S6_R8rationalS8_(ptr noundef nonnull align 8 dereferenceable(272) %this, ptr noundef %0, i32 poison, ptr noundef nonnull %m_args.i, ptr noundef nonnull align 8 dereferenceable(8) %m, ptr noundef nonnull align 8 dereferenceable(8) %n, ptr noundef nonnull align 8 dereferenceable(32) %d, ptr noundef nonnull align 8 dereferenceable(32) %r)
  br label %return

return:                                           ; preds = %entry, %if.end
  %retval.0 = phi i1 [ %call8, %if.end ], [ false, %entry ]
  ret i1 %retval.0
}